target datalayout = "e-m:e-p270:32:32-p271:32:32-p272:64:64-i64:64-i128:128-f80:128-n8:16:32:64-S128"
target triple = "x86_64-pc-linux-gnu"

%struct.PJconsts = type { ptr, ptr, ptr, ptr, ptr, ptr, ptr, ptr, ptr, ptr, ptr, ptr, i32, ptr, ptr, ptr, ptr, ptr, ptr, ptr, ptr, double, double, double, double, double, double, double, double, double, double, double, double, double, double, double, double, double, double, double, double, double, double, i32, i32, i32, i32, i32, i32, i32, i32, i32, i32, i32, ptr, ptr, ptr, ptr, ptr, ptr, double, double, double, double, double, double, double, double, double, double, double, i32, [7 x double], i32, ptr, ptr, double, double, i32, [4 x i8], %"class.std::shared_ptr", i8, double, i8, %"class.std::__cxx11::basic_string", %"class.std::__cxx11::basic_string", %"class.std::__cxx11::basic_string", i8, %"class.std::vector", i32, %"class.std::vector.3", i32, i8, i8, i8, ptr }
%"class.std::shared_ptr" = type { %"class.std::__shared_ptr" }
%"class.std::__shared_ptr" = type { ptr, %"class.std::__shared_count" }
%"class.std::__shared_count" = type { ptr }
%"class.std::__cxx11::basic_string" = type { %"struct.std::__cxx11::basic_string<char>::_Alloc_hider", i64, %union.anon }
%"struct.std::__cxx11::basic_string<char>::_Alloc_hider" = type { ptr }
%union.anon = type { i64, [8 x i8] }
%"class.std::vector" = type { %"struct.std::_Vector_base" }
%"struct.std::_Vector_base" = type { %"struct.std::_Vector_base<osgeo::proj::operation::GridDescription, std::allocator<osgeo::proj::operation::GridDescription>>::_Vector_impl" }
%"struct.std::_Vector_base<osgeo::proj::operation::GridDescription, std::allocator<osgeo::proj::operation::GridDescription>>::_Vector_impl" = type { %"struct.std::_Vector_base<osgeo::proj::operation::GridDescription, std::allocator<osgeo::proj::operation::GridDescription>>::_Vector_impl_data" }
%"struct.std::_Vector_base<osgeo::proj::operation::GridDescription, std::allocator<osgeo::proj::operation::GridDescription>>::_Vector_impl_data" = type { ptr, ptr, ptr }
%"class.std::vector.3" = type { %"struct.std::_Vector_base.4" }
%"struct.std::_Vector_base.4" = type { %"struct.std::_Vector_base<PJCoordOperation, std::allocator<PJCoordOperation>>::_Vector_impl" }
%"struct.std::_Vector_base<PJCoordOperation, std::allocator<PJCoordOperation>>::_Vector_impl" = type { %"struct.std::_Vector_base<PJCoordOperation, std::allocator<PJCoordOperation>>::_Vector_impl_data" }
%"struct.std::_Vector_base<PJCoordOperation, std::allocator<PJCoordOperation>>::_Vector_impl_data" = type { ptr, ptr, ptr }
%"struct.(anonymous namespace)::pj_eqearth" = type { double, double, ptr }
%struct.PJ_XY = type { double, double }
%struct.PJ_LP = type { double, double }

; Function Attrs: mustprogress uwtable
define internal { double, double } @_ZL17eqearth_e_forward5PJ_LPP8PJconsts(double %0, double %1, ptr noundef %2) #0 {
  %4 = alloca %struct.PJ_XY, align 8
  %5 = alloca %struct.PJ_LP, align 8
  %6 = alloca ptr, align 8
  %7 = alloca ptr, align 8
  %8 = alloca double, align 8
  %9 = alloca double, align 8
  %10 = alloca double, align 8
  %11 = alloca double, align 8
  %12 = getelementptr inbounds nuw { double, double }, ptr %5, i32 0, i32 0
  store double %0, ptr %12, align 8
  %13 = getelementptr inbounds nuw { double, double }, ptr %5, i32 0, i32 1
  store double %1, ptr %13, align 8
  store ptr %2, ptr %6, align 8, !tbaa !3
  call void @llvm.memset.p0.i64(ptr align 8 %4, i8 0, i64 16, i1 false)
  call void @llvm.lifetime.start.p0(i64 8, ptr %7) #7
  %14 = load ptr, ptr %6, align 8, !tbaa !3
  %15 = getelementptr inbounds nuw %struct.PJconsts, ptr %14, i32 0, i32 11
  %16 = load ptr, ptr %15, align 8, !tbaa !43
  store ptr %16, ptr %7, align 8, !tbaa !41
  call void @llvm.lifetime.start.p0(i64 8, ptr %8) #7
  call void @llvm.lifetime.start.p0(i64 8, ptr %9) #7
  call void @llvm.lifetime.start.p0(i64 8, ptr %10) #7
  call void @llvm.lifetime.start.p0(i64 8, ptr %11) #7
  %17 = getelementptr inbounds nuw %struct.PJ_LP, ptr %5, i32 0, i32 1
  %18 = load double, ptr %17, align 8, !tbaa !56
  %19 = call double @sin(double noundef %18) #7, !tbaa !55
  store double %19, ptr %8, align 8, !tbaa !58
  %20 = load ptr, ptr %6, align 8, !tbaa !3
  %21 = getelementptr inbounds nuw %struct.PJconsts, ptr %20, i32 0, i32 27
  %22 = load double, ptr %21, align 8, !tbaa !50
  %23 = fcmp une double %22, 0.000000e+00
  br i1 %23, label %24, label %47

24:                                               ; preds = %3
  %25 = load double, ptr %8, align 8, !tbaa !58
  %26 = load ptr, ptr %6, align 8, !tbaa !3
  %27 = getelementptr inbounds nuw %struct.PJconsts, ptr %26, i32 0, i32 26
  %28 = load double, ptr %27, align 8, !tbaa !52
  %29 = load ptr, ptr %6, align 8, !tbaa !3
  %30 = getelementptr inbounds nuw %struct.PJconsts, ptr %29, i32 0, i32 27
  %31 = load double, ptr %30, align 8, !tbaa !50
  %32 = fsub double 1.000000e+00, %31
  %33 = call noundef double @_Z7pj_qsfnddd(double noundef %25, double noundef %28, double noundef %32)
  %34 = load ptr, ptr %7, align 8, !tbaa !41
  %35 = getelementptr inbounds nuw %"struct.(anonymous namespace)::pj_eqearth", ptr %34, i32 0, i32 0
  %36 = load double, ptr %35, align 8, !tbaa !54
  %37 = fdiv double %33, %36
  store double %37, ptr %8, align 8, !tbaa !58
  %38 = load double, ptr %8, align 8, !tbaa !58
  %39 = call double @llvm.fabs.f64(double %38)
  %40 = fcmp ogt double %39, 1.000000e+00
  br i1 %40, label %41, label %46

41:                                               ; preds = %24
  %42 = load double, ptr %8, align 8, !tbaa !58
  %43 = fcmp ogt double %42, 0.000000e+00
  %44 = select i1 %43, i32 1, i32 -1
  %45 = sitofp i32 %44 to double
  store double %45, ptr %8, align 8, !tbaa !58
  br label %46

46:                                               ; preds = %41, %24
  br label %47

47:                                               ; preds = %46, %3
  %48 = call double @sqrt(double noundef 3.000000e+00) #7, !tbaa !55
  %49 = fdiv double %48, 2.000000e+00
  %50 = load double, ptr %8, align 8, !tbaa !58
  %51 = fmul double %49, %50
  %52 = call double @asin(double noundef %51) #7, !tbaa !55
  store double %52, ptr %9, align 8, !tbaa !58
  %53 = load double, ptr %9, align 8, !tbaa !58
  %54 = load double, ptr %9, align 8, !tbaa !58
  %55 = fmul double %53, %54
  store double %55, ptr %10, align 8, !tbaa !58
  %56 = load double, ptr %10, align 8, !tbaa !58
  %57 = load double, ptr %10, align 8, !tbaa !58
  %58 = fmul double %56, %57
  %59 = load double, ptr %10, align 8, !tbaa !58
  %60 = fmul double %58, %59
  store double %60, ptr %11, align 8, !tbaa !58
  %61 = getelementptr inbounds nuw %struct.PJ_LP, ptr %5, i32 0, i32 0
  %62 = load double, ptr %61, align 8, !tbaa !59
  %63 = load double, ptr %9, align 8, !tbaa !58
  %64 = call double @cos(double noundef %63) #7, !tbaa !55
  %65 = fmul double %62, %64
  %66 = call double @sqrt(double noundef 3.000000e+00) #7, !tbaa !55
  %67 = fdiv double %66, 2.000000e+00
  %68 = load double, ptr %10, align 8, !tbaa !58
  %69 = call double @llvm.fmuladd.f64(double 0xBFCF250B524399B2, double %68, double 0x3FF571B8AA00192A)
  %70 = load double, ptr %11, align 8, !tbaa !58
  %71 = load double, ptr %10, align 8, !tbaa !58
  %72 = call double @llvm.fmuladd.f64(double 3.416400e-02, double %71, double 0x3F799AA60913A4F9)
  %73 = call double @llvm.fmuladd.f64(double %70, double %72, double %69)
  %74 = fmul double %67, %73
  %75 = fdiv double %65, %74
  %76 = getelementptr inbounds nuw %struct.PJ_XY, ptr %4, i32 0, i32 0
  store double %75, ptr %76, align 8, !tbaa !60
  %77 = load double, ptr %9, align 8, !tbaa !58
  %78 = load double, ptr %10, align 8, !tbaa !58
  %79 = call double @llvm.fmuladd.f64(double 0xBFB4C35CE1826677, double %78, double 0x3FF571B8AA00192A)
  %80 = load double, ptr %11, align 8, !tbaa !58
  %81 = load double, ptr %10, align 8, !tbaa !58
  %82 = call double @llvm.fmuladd.f64(double 3.796000e-03, double %81, double 8.930000e-04)
  %83 = call double @llvm.fmuladd.f64(double %80, double %82, double %79)
  %84 = fmul double %77, %83
  %85 = getelementptr inbounds nuw %struct.PJ_XY, ptr %4, i32 0, i32 1
  store double %84, ptr %85, align 8, !tbaa !62
  %86 = load ptr, ptr %7, align 8, !tbaa !41
  %87 = getelementptr inbounds nuw %"struct.(anonymous namespace)::pj_eqearth", ptr %86, i32 0, i32 1
  %88 = load double, ptr %87, align 8, !tbaa !47
  %89 = getelementptr inbounds nuw %struct.PJ_XY, ptr %4, i32 0, i32 0
  %90 = load double, ptr %89, align 8, !tbaa !60
  %91 = fmul double %90, %88
  store double %91, ptr %89, align 8, !tbaa !60
  %92 = load ptr, ptr %7, align 8, !tbaa !41
  %93 = getelementptr inbounds nuw %"struct.(anonymous namespace)::pj_eqearth", ptr %92, i32 0, i32 1
  %94 = load double, ptr %93, align 8, !tbaa !47
  %95 = getelementptr inbounds nuw %struct.PJ_XY, ptr %4, i32 0, i32 1
  %96 = load double, ptr %95, align 8, !tbaa !62
  %97 = fmul double %96, %94
  store double %97, ptr %95, align 8, !tbaa !62
  call void @llvm.lifetime.end.p0(i64 8, ptr %11) #7
  call void @llvm.lifetime.end.p0(i64 8, ptr %10) #7
  call void @llvm.lifetime.end.p0(i64 8, ptr %9) #7
  call void @llvm.lifetime.end.p0(i64 8, ptr %8) #7
  call void @llvm.lifetime.end.p0(i64 8, ptr %7) #7
  %98 = load { double, double }, ptr %4, align 8
  ret { double, double } %98
}