; Function Attrs: mustprogress uwtable
define internal { double, double } @_ZL17eqearth_e_forward5PJ_LPP8PJconsts(double %0, double %1, ptr noundef readonly captures(none) %2) #0 {
  %4 = getelementptr inbounds nuw i8, ptr %2, i64 88
  %5 = load ptr, ptr %4, align 8, !tbaa !40
  %6 = tail call double @sin(double noundef %1) #7, !tbaa !52
  %7 = getelementptr inbounds nuw i8, ptr %2, i64 216
  %8 = load double, ptr %7, align 8, !tbaa !47
  %9 = fcmp une double %8, 0.000000e+00
  br i1 %9, label %10, label %22

10:                                               ; preds = %3
  %11 = getelementptr inbounds nuw i8, ptr %2, i64 208
  %12 = load double, ptr %11, align 8, !tbaa !49
  %13 = fsub double 1.000000e+00, %8
  %14 = tail call noundef double @_Z7pj_qsfnddd(double noundef %6, double noundef %12, double noundef %13)
  %15 = load double, ptr %5, align 8, !tbaa !51
  %16 = fdiv double %14, %15
  %17 = tail call double @llvm.fabs.f64(double %16)
  %18 = fcmp ogt double %17, 1.000000e+00
  br i1 %18, label %19, label %22

19:                                               ; preds = %10
  %20 = fcmp ogt double %16, 0.000000e+00
  %21 = select i1 %20, double 1.000000e+00, double -1.000000e+00
  br label %22

22:                                               ; preds = %10, %19, %3
  %.0 = phi double [ %21, %19 ], [ %16, %10 ], [ %6, %3 ]
  %23 = fmul double %.0, 0x3FEBB67AE8584CAA
  %24 = tail call double @asin(double noundef %23) #7, !tbaa !52
  %25 = fmul double %24, %24
  %26 = fmul double %25, %25
  %27 = fmul double %25, %26
  %28 = tail call double @cos(double noundef %24) #7, !tbaa !52
  %29 = fmul double %0, %28
  %30 = tail call double @llvm.fmuladd.f64(double %25, double 0xBFCF250B524399B2, double 0x3FF571B8AA00192A)
  %31 = tail call double @llvm.fmuladd.f64(double %25, double 3.416400e-02, double 0x3F799AA60913A4F9)
  %32 = tail call double @llvm.fmuladd.f64(double %27, double %31, double %30)
  %33 = fmul double %32, 0x3FEBB67AE8584CAA
  %34 = fdiv double %29, %33
  %35 = tail call double @llvm.fmuladd.f64(double %25, double 0xBFB4C35CE1826677, double 0x3FF571B8AA00192A)
  %36 = tail call double @llvm.fmuladd.f64(double %25, double 3.796000e-03, double 8.930000e-04)
  %37 = tail call double @llvm.fmuladd.f64(double %27, double %36, double %35)
  %38 = fmul double %24, %37
  %39 = getelementptr inbounds nuw i8, ptr %5, i64 8
  %40 = load double, ptr %39, align 8, !tbaa !44
  %41 = fmul double %40, %34
  %42 = fmul double %40, %38
  %.fca.0.insert = insertvalue { double, double } poison, double %41, 0
  %.fca.1.insert = insertvalue { double, double } %.fca.0.insert, double %42, 1
  ret { double, double } %.fca.1.insert
}